; Function Attrs: nounwind uwtable
define dso_local void @strbuf_addchars(ptr noundef captures(none) %0, i32 noundef %1, i64 noundef %2) local_unnamed_addr #3 {
  %4 = load i64, ptr %0, align 8, !tbaa !15
  %.not.i = icmp eq i64 %4, 0
  %5 = icmp eq i64 %2, -1
  br i1 %5, label %11, label %6

6:                                                ; preds = %3
  %7 = getelementptr inbounds nuw i8, ptr %0, i64 8
  %8 = load i64, ptr %7, align 8, !tbaa !16
  %9 = sub nuw i64 -2, %2
  %10 = icmp ult i64 %9, %8
  br i1 %10, label %11, label %12

11:                                               ; preds = %6, %3
  tail call void (ptr, ...) @die(ptr noundef nonnull @.str) #24
  unreachable

12:                                               ; preds = %6
  br i1 %.not.i, label %13, label %15

13:                                               ; preds = %12
  %14 = getelementptr inbounds nuw i8, ptr %0, i64 16
  store ptr null, ptr %14, align 8, !tbaa !12
  br label %15

15:                                               ; preds = %13, %12
  %16 = add nuw i64 %2, 1
  %17 = add i64 %16, %8
  %18 = icmp ugt i64 %17, %4
  br i1 %18, label %st_mult.exit.i, label %25

st_mult.exit.i:                                   ; preds = %15
  %19 = mul i64 %4, 3
  %20 = add i64 %19, 48
  %21 = lshr i64 %20, 1
  %..i = tail call i64 @llvm.umax.i64(i64 %21, i64 %17)
  store i64 %..i, ptr %0, align 8, !tbaa !15
  %22 = getelementptr inbounds nuw i8, ptr %0, i64 16
  %23 = load ptr, ptr %22, align 8, !tbaa !12
  %24 = tail call ptr @xrealloc(ptr noundef %23, i64 noundef %..i) #25
  store ptr %24, ptr %22, align 8, !tbaa !12
  br label %25

25:                                               ; preds = %st_mult.exit.i, %15
  br i1 %.not.i, label %26, label %strbuf_grow.exit

26:                                               ; preds = %25
  %27 = getelementptr inbounds nuw i8, ptr %0, i64 16
  %28 = load ptr, ptr %27, align 8, !tbaa !12
  store i8 0, ptr %28, align 1, !tbaa !4
  br label %strbuf_grow.exit

strbuf_grow.exit:                                 ; preds = %25, %26
  %29 = getelementptr inbounds nuw i8, ptr %0, i64 16
  %30 = load ptr, ptr %29, align 8, !tbaa !12
  %31 = load i64, ptr %7, align 8, !tbaa !16
  %32 = getelementptr inbounds nuw i8, ptr %30, i64 %31
  %33 = trunc i32 %1 to i8
  tail call void @llvm.memset.p0.i64(ptr align 1 %32, i8 %33, i64 %2, i1 false)
  %34 = load i64, ptr %7, align 8, !tbaa !16
  %35 = add i64 %34, %2
  %36 = load i64, ptr %0, align 8, !tbaa !15
  %spec.select.i = tail call i64 @llvm.usub.sat.i64(i64 %36, i64 1)
  %37 = icmp ugt i64 %35, %spec.select.i
  br i1 %37, label %38, label %39

38:                                               ; preds = %strbuf_grow.exit
  tail call void (ptr, i32, ptr, ...) @BUG_fl(ptr noundef nonnull @.str.28, i32 noundef 167, ptr noundef nonnull @.str.29) #24
  unreachable

39:                                               ; preds = %strbuf_grow.exit
  store i64 %35, ptr %7, align 8, !tbaa !16
  %40 = load ptr, ptr %29, align 8, !tbaa !12
  %.not9.i = icmp eq ptr %40, @strbuf_slopbuf
  br i1 %.not9.i, label %strbuf_setlen.exit, label %41

41:                                               ; preds = %39
  %42 = getelementptr inbounds nuw i8, ptr %40, i64 %35
  store i8 0, ptr %42, align 1, !tbaa !4
  br label %strbuf_setlen.exit

strbuf_setlen.exit:                               ; preds = %39, %41
  ret void
}